target datalayout = "e-m:e-p270:32:32-p271:32:32-p272:64:64-i64:64-i128:128-f80:128-n8:16:32:64-S128"
target triple = "x86_64-pc-linux-gnu"

%class.IntegerTypeMultiplication.0 = type <{ i64, i64, i64, i64, i16, i16, [4 x i8] }>
%class.TypeInteger.base = type { %class.Type.base, i16 }
%class.Type.base = type <{ ptr, ptr, i32 }>
%class.TypeInteger = type { %class.Type.base, i16, [2 x i8] }
%class.TypeLong = type { %class.TypeInteger.base, i64, i64 }

; Function Attrs: mustprogress nounwind uwtable
define linkonce_odr hidden void @_ZN25IntegerTypeMultiplicationIlEC2I8TypeLongEEPKT_S5_(ptr noundef nonnull align 8 dereferenceable(36) %0, ptr noundef %1, ptr noundef %2) unnamed_addr #1 comdat align 2 {
  %4 = alloca ptr, align 8
  %5 = alloca ptr, align 8
  %6 = alloca ptr, align 8
  store ptr %0, ptr %4, align 8
  store ptr %1, ptr %5, align 8
  store ptr %2, ptr %6, align 8
  %7 = load ptr, ptr %4, align 8
  %8 = getelementptr inbounds %class.IntegerTypeMultiplication.0, ptr %7, i32 0, i32 0
  %9 = load ptr, ptr %5, align 8
  %10 = getelementptr inbounds %class.TypeLong, ptr %9, i32 0, i32 1
  %11 = load i64, ptr %10, align 8
  store i64 %11, ptr %8, align 8
  %12 = getelementptr inbounds %class.IntegerTypeMultiplication.0, ptr %7, i32 0, i32 1
  %13 = load ptr, ptr %6, align 8
  %14 = getelementptr inbounds %class.TypeLong, ptr %13, i32 0, i32 1
  %15 = load i64, ptr %14, align 8
  store i64 %15, ptr %12, align 8
  %16 = getelementptr inbounds %class.IntegerTypeMultiplication.0, ptr %7, i32 0, i32 2
  %17 = load ptr, ptr %5, align 8
  %18 = getelementptr inbounds %class.TypeLong, ptr %17, i32 0, i32 2
  %19 = load i64, ptr %18, align 8
  store i64 %19, ptr %16, align 8
  %20 = getelementptr inbounds %class.IntegerTypeMultiplication.0, ptr %7, i32 0, i32 3
  %21 = load ptr, ptr %6, align 8
  %22 = getelementptr inbounds %class.TypeLong, ptr %21, i32 0, i32 2
  %23 = load i64, ptr %22, align 8
  store i64 %23, ptr %20, align 8
  %24 = getelementptr inbounds %class.IntegerTypeMultiplication.0, ptr %7, i32 0, i32 4
  %25 = load ptr, ptr %5, align 8
  %26 = getelementptr inbounds %class.TypeInteger, ptr %25, i32 0, i32 1
  %27 = load i16, ptr %26, align 4
  store i16 %27, ptr %24, align 8
  %28 = getelementptr inbounds %class.IntegerTypeMultiplication.0, ptr %7, i32 0, i32 5
  %29 = load ptr, ptr %6, align 8
  %30 = getelementptr inbounds %class.TypeInteger, ptr %29, i32 0, i32 1
  %31 = load i16, ptr %30, align 4
  store i16 %31, ptr %28, align 2
  ret void
}

; Function Attrs: mustprogress nounwind uwtable
define linkonce_odr hidden noundef ptr @_ZNK4Type7is_longEv(ptr noundef nonnull align 8 dereferenceable(20) %0) #1 comdat align 2 {
  %2 = alloca ptr, align 8
  store ptr %0, ptr %2, align 8
  %3 = load ptr, ptr %2, align 8
  ret ptr %3
}

; Function Attrs: mustprogress nounwind uwtable
define hidden noundef ptr @_ZNK8MulLNode8mul_ringEPK4TypeS2_(ptr noundef nonnull align 8 dereferenceable(52) %0, ptr noundef %1, ptr noundef %2) unnamed_addr #1 align 2 {
  %4 = alloca ptr, align 8
  %5 = alloca ptr, align 8
  %6 = alloca ptr, align 8
  %7 = alloca %class.IntegerTypeMultiplication.0, align 8
  store ptr %0, ptr %4, align 8
  store ptr %1, ptr %5, align 8
  store ptr %2, ptr %6, align 8
  %8 = load ptr, ptr %5, align 8
  %9 = call noundef ptr @_ZNK4Type7is_longEv(ptr noundef nonnull align 8 dereferenceable(20) %8)
  %10 = load ptr, ptr %6, align 8
  %11 = call noundef ptr @_ZNK4Type7is_longEv(ptr noundef nonnull align 8 dereferenceable(20) %10)
  call void @_ZN25IntegerTypeMultiplicationIlEC2I8TypeLongEEPKT_S5_(ptr noundef nonnull align 8 dereferenceable(36) %7, ptr noundef %9, ptr noundef %11)
  %12 = call noundef ptr @_ZNK25IntegerTypeMultiplicationIlE7computeEv(ptr noundef nonnull align 8 dereferenceable(36) %7)
  ret ptr %12
}