; Function Attrs: mustprogress nounwind uwtable
define hidden noundef ptr @_ZNK8MulLNode8mul_ringEPK4TypeS2_(ptr nocapture noundef nonnull readnone align 8 dereferenceable(52) %0, ptr nocapture noundef readonly %1, ptr nocapture noundef readonly %2) unnamed_addr #0 align 2 {
  %4 = alloca %class.IntegerTypeMultiplication.0, align 8
  %5 = getelementptr inbounds i8, ptr %1, i64 24
  %6 = getelementptr inbounds i8, ptr %2, i64 24
  %7 = load <2 x i64>, ptr %5, align 8
  %8 = load <2 x i64>, ptr %6, align 8
  %9 = shufflevector <2 x i64> %7, <2 x i64> %8, <4 x i32> <i32 0, i32 2, i32 1, i32 3>
  store <4 x i64> %9, ptr %4, align 8
  %10 = getelementptr inbounds i8, ptr %4, i64 32
  %11 = getelementptr inbounds i8, ptr %1, i64 20
  %12 = load i16, ptr %11, align 4
  store i16 %12, ptr %10, align 8
  %13 = getelementptr inbounds i8, ptr %4, i64 34
  %14 = getelementptr inbounds i8, ptr %2, i64 20
  %15 = load i16, ptr %14, align 4
  store i16 %15, ptr %13, align 2
  %16 = call noundef ptr @_ZNK25IntegerTypeMultiplicationIlE7computeEv(ptr noundef nonnull align 8 dereferenceable(36) %4)
  ret ptr %16
}